ccollections
defaultdict
p0
(c__builtin__
dict
p1
tp2
Rp3
S'increase_decrease_disparity'
p4
(dp5
S'c_charge_desc'
p6
(dp7
S'inc_disparity'
p8
I1
ssS'juv_fel_count'
p9
(dp10
g8
I1
ssS'c_charge_degree'
p11
(dp12
g8
I0
ssS'age'
p13
(dp14
g8
I1
ssS'juv_misd_count'
p15
(dp16
g8
I1
ssS'sex'
p17
(dp18
g8
I0
ssS'race'
p19
(dp20
g8
I0
ssS'priors_count'
p21
(dp22
g8
I1
ssS'juv_other_count'
p23
(dp24
g8
I1
sssS'increase_decrease_accuracy'
p25
(dp26
g6
(dp27
S'inc_accuracy'
p28
I1
ssg9
(dp29
g28
I1
ssg11
(dp30
g28
I0
ssg13
(dp31
g28
I1
ssg15
(dp32
g28
I1
ssg17
(dp33
g28
I0
ssg19
(dp34
g28
I0
ssg21
(dp35
g28
I1
ssg23
(dp36
g28
I1
sss.